; ModuleID = '20/1360.c'
source_filename = "20/1360.c"
target datalayout = "e-m:e-p270:32:32-p271:32:32-p272:64:64-i64:64-f80:128-n8:16:32:64-S128"
target triple = "x86_64-pc-linux-gnu"

@.str = private unnamed_addr constant [5 x i8] c"%s%s\00", align 1

; Function Attrs: noinline nounwind uwtable
define dso_local i32 @main() #0 {
  %1 = alloca i32, align 4
  %2 = alloca [15 x i8], align 1
  %3 = alloca [4 x i8], align 1
  %4 = alloca i8, align 1
  %5 = alloca i32, align 4
  %6 = alloca i32, align 4
  %7 = alloca i32, align 4
  %8 = alloca i32, align 4
  store i32 0, i32* %1, align 4
  br label %9

9:                                                ; preds = %84, %0
  %10 = getelementptr inbounds [15 x i8], [15 x i8]* %2, i64 0, i64 0
  %11 = getelementptr inbounds [4 x i8], [4 x i8]* %3, i64 0, i64 0
  %12 = call i32 (i8*, ...) @__isoc99_scanf(i8* getelementptr inbounds ([5 x i8], [5 x i8]* @.str, i64 0, i64 0), i8* %10, i8* %11)
  %13 = icmp ne i32 %12, -1
  br i1 %13, label %14, label %91

14:                                               ; preds = %9
  %15 = getelementptr inbounds [15 x i8], [15 x i8]* %2, i64 0, i64 0
  %16 = call i64 @strlen(i8* %15) #3
  %17 = trunc i64 %16 to i32
  store i32 %17, i32* %7, align 4
  store i32 0, i32* %8, align 4
  %18 = getelementptr inbounds [15 x i8], [15 x i8]* %2, i64 0, i64 0
  %19 = load i8, i8* %18, align 1
  store i8 %19, i8* %4, align 1
  store i32 1, i32* %6, align 4
  br label %20

20:                                               ; preds = %40, %14
  %21 = load i32, i32* %6, align 4
  %22 = load i32, i32* %7, align 4
  %23 = icmp slt i32 %21, %22
  br i1 %23, label %24, label %43

24:                                               ; preds = %20
  %25 = load i8, i8* %4, align 1
  %26 = sext i8 %25 to i32
  %27 = load i32, i32* %6, align 4
  %28 = sext i32 %27 to i64
  %29 = getelementptr inbounds [15 x i8], [15 x i8]* %2, i64 0, i64 %28
  %30 = load i8, i8* %29, align 1
  %31 = sext i8 %30 to i32
  %32 = icmp slt i32 %26, %31
  br i1 %32, label %33, label %39

33:                                               ; preds = %24
  %34 = load i32, i32* %6, align 4
  %35 = sext i32 %34 to i64
  %36 = getelementptr inbounds [15 x i8], [15 x i8]* %2, i64 0, i64 %35
  %37 = load i8, i8* %36, align 1
  store i8 %37, i8* %4, align 1
  %38 = load i32, i32* %6, align 4
  store i32 %38, i32* %8, align 4
  br label %39

39:                                               ; preds = %33, %24
  br label %40

40:                                               ; preds = %39
  %41 = load i32, i32* %6, align 4
  %42 = add nsw i32 %41, 1
  store i32 %42, i32* %6, align 4
  br label %20

43:                                               ; preds = %20
  %44 = load i32, i32* %7, align 4
  %45 = add nsw i32 %44, 2
  store i32 %45, i32* %6, align 4
  br label %46

46:                                               ; preds = %60, %43
  %47 = load i32, i32* %6, align 4
  %48 = load i32, i32* %8, align 4
  %49 = add nsw i32 %48, 3
  %50 = icmp sgt i32 %47, %49
  br i1 %50, label %51, label %63

51:                                               ; preds = %46
  %52 = load i32, i32* %6, align 4
  %53 = sub nsw i32 %52, 3
  %54 = sext i32 %53 to i64
  %55 = getelementptr inbounds [15 x i8], [15 x i8]* %2, i64 0, i64 %54
  %56 = load i8, i8* %55, align 1
  %57 = load i32, i32* %6, align 4
  %58 = sext i32 %57 to i64
  %59 = getelementptr inbounds [15 x i8], [15 x i8]* %2, i64 0, i64 %58
  store i8 %56, i8* %59, align 1
  br label %60

60:                                               ; preds = %51
  %61 = load i32, i32* %6, align 4
  %62 = add nsw i32 %61, -1
  store i32 %62, i32* %6, align 4
  br label %46

63:                                               ; preds = %46
  %64 = load i32, i32* %8, align 4
  %65 = add nsw i32 %64, 1
  store i32 %65, i32* %6, align 4
  store i32 0, i32* %5, align 4
  br label %66

66:                                               ; preds = %79, %63
  %67 = load i32, i32* %6, align 4
  %68 = load i32, i32* %8, align 4
  %69 = add nsw i32 %68, 4
  %70 = icmp slt i32 %67, %69
  br i1 %70, label %71, label %84

71:                                               ; preds = %66
  %72 = load i32, i32* %5, align 4
  %73 = sext i32 %72 to i64
  %74 = getelementptr inbounds [4 x i8], [4 x i8]* %3, i64 0, i64 %73
  %75 = load i8, i8* %74, align 1
  %76 = load i32, i32* %6, align 4
  %77 = sext i32 %76 to i64
  %78 = getelementptr inbounds [15 x i8], [15 x i8]* %2, i64 0, i64 %77
  store i8 %75, i8* %78, align 1
  br label %79

79:                                               ; preds = %71
  %80 = load i32, i32* %6, align 4
  %81 = add nsw i32 %80, 1
  store i32 %81, i32* %6, align 4
  %82 = load i32, i32* %5, align 4
  %83 = add nsw i32 %82, 1
  store i32 %83, i32* %5, align 4
  br label %66

84:                                               ; preds = %66
  %85 = load i32, i32* %7, align 4
  %86 = add nsw i32 %85, 3
  %87 = sext i32 %86 to i64
  %88 = getelementptr inbounds [15 x i8], [15 x i8]* %2, i64 0, i64 %87
  store i8 0, i8* %88, align 1
  %89 = getelementptr inbounds [15 x i8], [15 x i8]* %2, i64 0, i64 0
  %90 = call i32 @puts(i8* %89)
  br label %9

91:                                               ; preds = %9
  ret i32 0
}

declare dso_local i32 @__isoc99_scanf(i8*, ...) #1

; Function Attrs: nounwind readonly
declare dso_local i64 @strlen(i8*) #2

declare dso_local i32 @puts(i8*) #1


!llvm.module.flags = !{!0}
!llvm.ident = !{!1}

!0 = !{i32 1, !"wchar_size", i32 4}
!1 = !{!"clang version 10.0.0-4ubuntu1 "}
